target datalayout = "e-m:e-p270:32:32-p271:32:32-p272:64:64-i64:64-i128:128-f80:128-n8:16:32:64-S128"
target triple = "x86_64-pc-linux-gnu"

%"class.grpc_core::StringMatcher" = type <{ i32, [4 x i8], %"class.std::__cxx11::basic_string", %"class.std::unique_ptr", i8, [7 x i8] }>
%"class.std::__cxx11::basic_string" = type { %"struct.std::__cxx11::basic_string<char>::_Alloc_hider", i64, %union.anon.1 }
%"struct.std::__cxx11::basic_string<char>::_Alloc_hider" = type { ptr }
%union.anon.1 = type { i64, [8 x i8] }
%"class.std::unique_ptr" = type { %"struct.std::__uniq_ptr_data" }
%"struct.std::__uniq_ptr_data" = type { %"class.std::__uniq_ptr_impl" }
%"class.std::__uniq_ptr_impl" = type { %"class.std::tuple" }
%"class.std::tuple" = type { %"struct.std::_Tuple_impl" }
%"struct.std::_Tuple_impl" = type { %"struct.std::_Head_base.3" }
%"struct.std::_Head_base.3" = type { ptr }
%"class.re2::RE2" = type <{ %"class.std::__cxx11::basic_string", %"class.re2::RE2::Options", ptr, ptr, i32, [4 x i8], %"class.std::__cxx11::basic_string", %"class.std::__cxx11::basic_string", i8, [7 x i8], ptr, ptr, i32, i8, [3 x i8], ptr, ptr, ptr, %"struct.std::once_flag", %"struct.std::once_flag", %"struct.std::once_flag", [4 x i8] }>
%"class.re2::RE2::Options" = type { i32, i8, i8, i8, i64, i8, i8, i8, i8, i8, i8, i8, i8 }
%"struct.std::once_flag" = type { i32 }
%"class.grpc_core::HeaderMatcher" = type <{ %"class.std::__cxx11::basic_string", i32, [4 x i8], %"class.grpc_core::StringMatcher", i64, i64, i8, i8, [6 x i8] }>

; Function Attrs: mustprogress nounwind uwtable
define linkonce_odr noundef nonnull align 8 dereferenceable(8) ptr @_ZNSt10_Head_baseILm0EPN3re23RE2ELb0EE7_M_headERKS3_(ptr noundef nonnull align 8 dereferenceable(8) %0) #7 comdat align 2 {
  %2 = alloca ptr, align 8
  store ptr %0, ptr %2, align 8, !tbaa !120
  %3 = load ptr, ptr %2, align 8, !tbaa !120
  %4 = getelementptr inbounds nuw %"struct.std::_Head_base.3", ptr %3, i32 0, i32 0
  ret ptr %4
}

; Function Attrs: mustprogress nounwind uwtable
define linkonce_odr noundef nonnull align 8 dereferenceable(8) ptr @_ZNSt11_Tuple_implILm0EJPN3re23RE2ESt14default_deleteIS1_EEE7_M_headERKS5_(ptr noundef nonnull align 8 dereferenceable(8) %0) #7 comdat align 2 {
  %2 = alloca ptr, align 8
  store ptr %0, ptr %2, align 8, !tbaa !115
  %3 = load ptr, ptr %2, align 8, !tbaa !115
  %4 = call noundef nonnull align 8 dereferenceable(8) ptr @_ZNSt10_Head_baseILm0EPN3re23RE2ELb0EE7_M_headERKS3_(ptr noundef nonnull align 8 dereferenceable(8) %3) #3
  ret ptr %4
}

; Function Attrs: mustprogress nounwind uwtable
define linkonce_odr noundef nonnull align 8 dereferenceable(8) ptr @_ZSt12__get_helperILm0EPN3re23RE2EJSt14default_deleteIS1_EEERKT0_RKSt11_Tuple_implIXT_EJS5_DpT1_EE(ptr noundef nonnull align 8 dereferenceable(8) %0) #7 comdat {
  %2 = alloca ptr, align 8
  store ptr %0, ptr %2, align 8, !tbaa !115
  %3 = load ptr, ptr %2, align 8, !tbaa !115
  %4 = call noundef nonnull align 8 dereferenceable(8) ptr @_ZNSt11_Tuple_implILm0EJPN3re23RE2ESt14default_deleteIS1_EEE7_M_headERKS5_(ptr noundef nonnull align 8 dereferenceable(8) %3) #3
  ret ptr %4
}

; Function Attrs: mustprogress nounwind uwtable
define linkonce_odr noundef nonnull align 8 dereferenceable(8) ptr @_ZSt3getILm0EJPN3re23RE2ESt14default_deleteIS1_EEERKNSt13tuple_elementIXT_ESt5tupleIJDpT0_EEE4typeERKS9_(ptr noundef nonnull align 8 dereferenceable(8) %0) #7 comdat {
  %2 = alloca ptr, align 8
  store ptr %0, ptr %2, align 8, !tbaa !113
  %3 = load ptr, ptr %2, align 8, !tbaa !113
  %4 = call noundef nonnull align 8 dereferenceable(8) ptr @_ZSt12__get_helperILm0EPN3re23RE2EJSt14default_deleteIS1_EEERKT0_RKSt11_Tuple_implIXT_EJS5_DpT1_EE(ptr noundef nonnull align 8 dereferenceable(8) %3) #3
  ret ptr %4
}

; Function Attrs: mustprogress nounwind uwtable
define linkonce_odr noundef ptr @_ZNKSt15__uniq_ptr_implIN3re23RE2ESt14default_deleteIS1_EE6_M_ptrEv(ptr noundef nonnull align 8 dereferenceable(8) %0) #7 comdat align 2 {
  %2 = alloca ptr, align 8
  store ptr %0, ptr %2, align 8, !tbaa !111
  %3 = load ptr, ptr %2, align 8
  %4 = getelementptr inbounds nuw %"class.std::__uniq_ptr_impl", ptr %3, i32 0, i32 0
  %5 = call noundef nonnull align 8 dereferenceable(8) ptr @_ZSt3getILm0EJPN3re23RE2ESt14default_deleteIS1_EEERKNSt13tuple_elementIXT_ESt5tupleIJDpT0_EEE4typeERKS9_(ptr noundef nonnull align 8 dereferenceable(8) %4) #3
  %6 = load ptr, ptr %5, align 8, !tbaa !25
  ret ptr %6
}

; Function Attrs: noinline noreturn nounwind uwtable
define linkonce_odr hidden void @__clang_call_terminate(ptr noundef %0) #10 comdat {
  %2 = call ptr @__cxa_begin_catch(ptr %0) #3
  call void @_ZSt9terminatev() #20
  unreachable
}

; Function Attrs: mustprogress nounwind uwtable
define available_externally noundef ptr @_ZNKSt7__cxx1112basic_stringIcSt11char_traitsIcESaIcEE7_M_dataEv(ptr noundef nonnull align 8 dereferenceable(32) %0) #7 align 2 {
  %2 = alloca ptr, align 8
  store ptr %0, ptr %2, align 8, !tbaa !17
  %3 = load ptr, ptr %2, align 8
  %4 = getelementptr inbounds nuw %"class.std::__cxx11::basic_string", ptr %3, i32 0, i32 0
  %5 = getelementptr inbounds nuw %"struct.std::__cxx11::basic_string<char>::_Alloc_hider", ptr %4, i32 0, i32 0
  %6 = load ptr, ptr %5, align 8, !tbaa !131
  ret ptr %6
}

; Function Attrs: mustprogress nounwind uwtable
define linkonce_odr noundef ptr @_ZNKSt10unique_ptrIN3re23RE2ESt14default_deleteIS1_EE3getEv(ptr noundef nonnull align 8 dereferenceable(8) %0) #7 comdat align 2 {
  %2 = alloca ptr, align 8
  store ptr %0, ptr %2, align 8, !tbaa !23
  %3 = load ptr, ptr %2, align 8
  %4 = getelementptr inbounds nuw %"class.std::unique_ptr", ptr %3, i32 0, i32 0
  %5 = call noundef ptr @_ZNKSt15__uniq_ptr_implIN3re23RE2ESt14default_deleteIS1_EE6_M_ptrEv(ptr noundef nonnull align 8 dereferenceable(8) %4) #3
  ret ptr %5
}

; Function Attrs: mustprogress nounwind uwtable
define linkonce_odr noundef i32 @_ZNSt11char_traitsIcE7compareEPKcS2_m(ptr noundef %0, ptr noundef %1, i64 noundef %2) #7 comdat align 2 {
  %4 = alloca i32, align 4
  %5 = alloca ptr, align 8
  %6 = alloca ptr, align 8
  %7 = alloca i64, align 8
  store ptr %0, ptr %5, align 8, !tbaa !12
  store ptr %1, ptr %6, align 8, !tbaa !12
  store i64 %2, ptr %7, align 8, !tbaa !10
  %8 = load i64, ptr %7, align 8, !tbaa !10
  %9 = icmp eq i64 %8, 0
  br i1 %9, label %10, label %11

10:                                               ; preds = %3
  store i32 0, ptr %4, align 4
  br label %16

11:                                               ; preds = %3
  %12 = load ptr, ptr %5, align 8, !tbaa !12
  %13 = load ptr, ptr %6, align 8, !tbaa !12
  %14 = load i64, ptr %7, align 8, !tbaa !10
  %15 = call i32 @memcmp(ptr noundef %12, ptr noundef %13, i64 noundef %14) #3
  store i32 %15, ptr %4, align 4
  br label %16

16:                                               ; preds = %11, %10
  %17 = load i32, ptr %4, align 4
  ret i32 %17
}

; Function Attrs: mustprogress nounwind uwtable
define available_externally noundef ptr @_ZNKSt7__cxx1112basic_stringIcSt11char_traitsIcESaIcEE4dataEv(ptr noundef nonnull align 8 dereferenceable(32) %0) #7 align 2 personality ptr @__gxx_personality_v0 {
  %2 = alloca ptr, align 8
  store ptr %0, ptr %2, align 8, !tbaa !17
  %3 = load ptr, ptr %2, align 8
  %4 = invoke noundef ptr @_ZNKSt7__cxx1112basic_stringIcSt11char_traitsIcESaIcEE7_M_dataEv(ptr noundef nonnull align 8 dereferenceable(32) %3)
          to label %5 unwind label %6

5:                                                ; preds = %1
  ret ptr %4

6:                                                ; preds = %1
  %7 = landingpad { ptr, i32 }
          catch ptr null
  %8 = extractvalue { ptr, i32 } %7, 0
  call void @__clang_call_terminate(ptr %8) #20
  unreachable
}

; Function Attrs: mustprogress nounwind uwtable
define available_externally noundef i64 @_ZNKSt7__cxx1112basic_stringIcSt11char_traitsIcESaIcEE4sizeEv(ptr noundef nonnull align 8 dereferenceable(32) %0) #7 align 2 {
  %2 = alloca ptr, align 8
  store ptr %0, ptr %2, align 8, !tbaa !17
  %3 = load ptr, ptr %2, align 8
  %4 = getelementptr inbounds nuw %"class.std::__cxx11::basic_string", ptr %3, i32 0, i32 1
  %5 = load i64, ptr %4, align 8, !tbaa !130
  ret i64 %5
}

; Function Attrs: mustprogress nounwind uwtable
define linkonce_odr noundef nonnull align 8 dereferenceable(32) ptr @_ZNK3re23RE27patternB5cxx11Ev(ptr noundef nonnull align 8 dereferenceable(212) %0) #7 comdat align 2 {
  %2 = alloca ptr, align 8
  store ptr %0, ptr %2, align 8, !tbaa !25
  %3 = load ptr, ptr %2, align 8
  %4 = getelementptr inbounds nuw %"class.re2::RE2", ptr %3, i32 0, i32 0
  ret ptr %4
}

; Function Attrs: mustprogress nounwind uwtable
define linkonce_odr noundef ptr @_ZNKSt10unique_ptrIN3re23RE2ESt14default_deleteIS1_EEptEv(ptr noundef nonnull align 8 dereferenceable(8) %0) #7 comdat align 2 {
  %2 = alloca ptr, align 8
  store ptr %0, ptr %2, align 8, !tbaa !23
  %3 = load ptr, ptr %2, align 8
  %4 = call noundef ptr @_ZNKSt10unique_ptrIN3re23RE2ESt14default_deleteIS1_EE3getEv(ptr noundef nonnull align 8 dereferenceable(8) %3) #3
  ret ptr %4
}

; Function Attrs: inlinehint mustprogress nounwind uwtable
define linkonce_odr noundef zeroext i1 @_ZSteqIcEN9__gnu_cxx11__enable_ifIXsr9__is_charIT_EE7__valueEbE6__typeERKNSt7__cxx1112basic_stringIS2_St11char_traitsIS2_ESaIS2_EEESC_(ptr noundef nonnull align 8 dereferenceable(32) %0, ptr noundef nonnull align 8 dereferenceable(32) %1) #8 comdat {
  %3 = alloca ptr, align 8
  %4 = alloca ptr, align 8
  store ptr %0, ptr %3, align 8, !tbaa !17
  store ptr %1, ptr %4, align 8, !tbaa !17
  %5 = load ptr, ptr %3, align 8, !tbaa !17
  %6 = call noundef i64 @_ZNKSt7__cxx1112basic_stringIcSt11char_traitsIcESaIcEE4sizeEv(ptr noundef nonnull align 8 dereferenceable(32) %5) #3
  %7 = load ptr, ptr %4, align 8, !tbaa !17
  %8 = call noundef i64 @_ZNKSt7__cxx1112basic_stringIcSt11char_traitsIcESaIcEE4sizeEv(ptr noundef nonnull align 8 dereferenceable(32) %7) #3
  %9 = icmp eq i64 %6, %8
  br i1 %9, label %10, label %20

10:                                               ; preds = %2
  %11 = load ptr, ptr %3, align 8, !tbaa !17
  %12 = call noundef ptr @_ZNKSt7__cxx1112basic_stringIcSt11char_traitsIcESaIcEE4dataEv(ptr noundef nonnull align 8 dereferenceable(32) %11) #3
  %13 = load ptr, ptr %4, align 8, !tbaa !17
  %14 = call noundef ptr @_ZNKSt7__cxx1112basic_stringIcSt11char_traitsIcESaIcEE4dataEv(ptr noundef nonnull align 8 dereferenceable(32) %13) #3
  %15 = load ptr, ptr %3, align 8, !tbaa !17
  %16 = call noundef i64 @_ZNKSt7__cxx1112basic_stringIcSt11char_traitsIcESaIcEE4sizeEv(ptr noundef nonnull align 8 dereferenceable(32) %15) #3
  %17 = call noundef i32 @_ZNSt11char_traitsIcE7compareEPKcS2_m(ptr noundef %12, ptr noundef %14, i64 noundef %16)
  %18 = icmp ne i32 %17, 0
  %19 = xor i1 %18, true
  br label %20

20:                                               ; preds = %10, %2
  %21 = phi i1 [ false, %2 ], [ %19, %10 ]
  ret i1 %21
}

; Function Attrs: mustprogress uwtable
define noundef zeroext i1 @_ZNK9grpc_core13StringMatchereqERKS0_(ptr noundef nonnull align 8 dereferenceable(49) %0, ptr noundef nonnull align 8 dereferenceable(49) %1) #4 align 2 {
  %3 = alloca i1, align 1
  %4 = alloca ptr, align 8
  %5 = alloca ptr, align 8
  store ptr %0, ptr %4, align 8, !tbaa !48
  store ptr %1, ptr %5, align 8, !tbaa !48
  %6 = load ptr, ptr %4, align 8
  %7 = getelementptr inbounds nuw %"class.grpc_core::StringMatcher", ptr %6, i32 0, i32 0
  %8 = load i32, ptr %7, align 8, !tbaa !53
  %9 = load ptr, ptr %5, align 8, !tbaa !48
  %10 = getelementptr inbounds nuw %"class.grpc_core::StringMatcher", ptr %9, i32 0, i32 0
  %11 = load i32, ptr %10, align 8, !tbaa !53
  %12 = icmp ne i32 %8, %11
  br i1 %12, label %24, label %13

13:                                               ; preds = %2
  %14 = getelementptr inbounds nuw %"class.grpc_core::StringMatcher", ptr %6, i32 0, i32 4
  %15 = load i8, ptr %14, align 8, !tbaa !61, !range !15, !noundef !16
  %16 = trunc i8 %15 to i1
  %17 = zext i1 %16 to i32
  %18 = load ptr, ptr %5, align 8, !tbaa !48
  %19 = getelementptr inbounds nuw %"class.grpc_core::StringMatcher", ptr %18, i32 0, i32 4
  %20 = load i8, ptr %19, align 8, !tbaa !61, !range !15, !noundef !16
  %21 = trunc i8 %20 to i1
  %22 = zext i1 %21 to i32
  %23 = icmp ne i32 %17, %22
  br i1 %23, label %24, label %25

24:                                               ; preds = %13, %2
  store i1 false, ptr %3, align 1
  br label %43

25:                                               ; preds = %13
  %26 = getelementptr inbounds nuw %"class.grpc_core::StringMatcher", ptr %6, i32 0, i32 0
  %27 = load i32, ptr %26, align 8, !tbaa !53
  %28 = icmp eq i32 %27, 3
  br i1 %28, label %29, label %38

29:                                               ; preds = %25
  %30 = getelementptr inbounds nuw %"class.grpc_core::StringMatcher", ptr %6, i32 0, i32 3
  %31 = call noundef ptr @_ZNKSt10unique_ptrIN3re23RE2ESt14default_deleteIS1_EEptEv(ptr noundef nonnull align 8 dereferenceable(8) %30) #3
  %32 = call noundef nonnull align 8 dereferenceable(32) ptr @_ZNK3re23RE27patternB5cxx11Ev(ptr noundef nonnull align 8 dereferenceable(212) %31)
  %33 = load ptr, ptr %5, align 8, !tbaa !48
  %34 = getelementptr inbounds nuw %"class.grpc_core::StringMatcher", ptr %33, i32 0, i32 3
  %35 = call noundef ptr @_ZNKSt10unique_ptrIN3re23RE2ESt14default_deleteIS1_EEptEv(ptr noundef nonnull align 8 dereferenceable(8) %34) #3
  %36 = call noundef nonnull align 8 dereferenceable(32) ptr @_ZNK3re23RE27patternB5cxx11Ev(ptr noundef nonnull align 8 dereferenceable(212) %35)
  %37 = call noundef zeroext i1 @_ZSteqIcEN9__gnu_cxx11__enable_ifIXsr9__is_charIT_EE7__valueEbE6__typeERKNSt7__cxx1112basic_stringIS2_St11char_traitsIS2_ESaIS2_EEESC_(ptr noundef nonnull align 8 dereferenceable(32) %32, ptr noundef nonnull align 8 dereferenceable(32) %36) #3
  store i1 %37, ptr %3, align 1
  br label %43

38:                                               ; preds = %25
  %39 = getelementptr inbounds nuw %"class.grpc_core::StringMatcher", ptr %6, i32 0, i32 2
  %40 = load ptr, ptr %5, align 8, !tbaa !48
  %41 = getelementptr inbounds nuw %"class.grpc_core::StringMatcher", ptr %40, i32 0, i32 2
  %42 = call noundef zeroext i1 @_ZSteqIcEN9__gnu_cxx11__enable_ifIXsr9__is_charIT_EE7__valueEbE6__typeERKNSt7__cxx1112basic_stringIS2_St11char_traitsIS2_ESaIS2_EEESC_(ptr noundef nonnull align 8 dereferenceable(32) %39, ptr noundef nonnull align 8 dereferenceable(32) %41) #3
  store i1 %42, ptr %3, align 1
  br label %43

43:                                               ; preds = %38, %29, %24
  %44 = load i1, ptr %3, align 1
  ret i1 %44
}

; Function Attrs: inlinehint mustprogress nounwind uwtable
define linkonce_odr noundef zeroext i1 @_ZStneIcSt11char_traitsIcESaIcEEbRKNSt7__cxx1112basic_stringIT_T0_T1_EESA_(ptr noundef nonnull align 8 dereferenceable(32) %0, ptr noundef nonnull align 8 dereferenceable(32) %1) #8 comdat {
  %3 = alloca ptr, align 8
  %4 = alloca ptr, align 8
  store ptr %0, ptr %3, align 8, !tbaa !17
  store ptr %1, ptr %4, align 8, !tbaa !17
  %5 = load ptr, ptr %3, align 8, !tbaa !17
  %6 = load ptr, ptr %4, align 8, !tbaa !17
  %7 = call noundef zeroext i1 @_ZSteqIcEN9__gnu_cxx11__enable_ifIXsr9__is_charIT_EE7__valueEbE6__typeERKNSt7__cxx1112basic_stringIS2_St11char_traitsIS2_ESaIS2_EEESC_(ptr noundef nonnull align 8 dereferenceable(32) %5, ptr noundef nonnull align 8 dereferenceable(32) %6) #3
  %8 = xor i1 %7, true
  ret i1 %8
}

; Function Attrs: mustprogress uwtable
define noundef zeroext i1 @_ZNK9grpc_core13HeaderMatchereqERKS0_(ptr noundef nonnull align 8 dereferenceable(114) %0, ptr noundef nonnull align 8 dereferenceable(114) %1) #4 align 2 {
  %3 = alloca i1, align 1
  %4 = alloca ptr, align 8
  %5 = alloca ptr, align 8
  store ptr %0, ptr %4, align 8, !tbaa !85
  store ptr %1, ptr %5, align 8, !tbaa !85
  %6 = load ptr, ptr %4, align 8
  %7 = getelementptr inbounds nuw %"class.grpc_core::HeaderMatcher", ptr %6, i32 0, i32 0
  %8 = load ptr, ptr %5, align 8, !tbaa !85
  %9 = getelementptr inbounds nuw %"class.grpc_core::HeaderMatcher", ptr %8, i32 0, i32 0
  %10 = call noundef zeroext i1 @_ZStneIcSt11char_traitsIcESaIcEEbRKNSt7__cxx1112basic_stringIT_T0_T1_EESA_(ptr noundef nonnull align 8 dereferenceable(32) %7, ptr noundef nonnull align 8 dereferenceable(32) %9) #3
  br i1 %10, label %11, label %12

11:                                               ; preds = %2
  store i1 false, ptr %3, align 1
  br label %67

12:                                               ; preds = %2
  %13 = getelementptr inbounds nuw %"class.grpc_core::HeaderMatcher", ptr %6, i32 0, i32 1
  %14 = load i32, ptr %13, align 8, !tbaa !92
  %15 = load ptr, ptr %5, align 8, !tbaa !85
  %16 = getelementptr inbounds nuw %"class.grpc_core::HeaderMatcher", ptr %15, i32 0, i32 1
  %17 = load i32, ptr %16, align 8, !tbaa !92
  %18 = icmp ne i32 %14, %17
  br i1 %18, label %19, label %20

19:                                               ; preds = %12
  store i1 false, ptr %3, align 1
  br label %67

20:                                               ; preds = %12
  %21 = getelementptr inbounds nuw %"class.grpc_core::HeaderMatcher", ptr %6, i32 0, i32 7
  %22 = load i8, ptr %21, align 1, !tbaa !94, !range !15, !noundef !16
  %23 = trunc i8 %22 to i1
  %24 = zext i1 %23 to i32
  %25 = load ptr, ptr %5, align 8, !tbaa !85
  %26 = getelementptr inbounds nuw %"class.grpc_core::HeaderMatcher", ptr %25, i32 0, i32 7
  %27 = load i8, ptr %26, align 1, !tbaa !94, !range !15, !noundef !16
  %28 = trunc i8 %27 to i1
  %29 = zext i1 %28 to i32
  %30 = icmp ne i32 %24, %29
  br i1 %30, label %31, label %32

31:                                               ; preds = %20
  store i1 false, ptr %3, align 1
  br label %67

32:                                               ; preds = %20
  %33 = getelementptr inbounds nuw %"class.grpc_core::HeaderMatcher", ptr %6, i32 0, i32 1
  %34 = load i32, ptr %33, align 8, !tbaa !92
  switch i32 %34, label %62 [
    i32 5, label %35
    i32 6, label %51
  ]

35:                                               ; preds = %32
  %36 = getelementptr inbounds nuw %"class.grpc_core::HeaderMatcher", ptr %6, i32 0, i32 4
  %37 = load i64, ptr %36, align 8, !tbaa !95
  %38 = load ptr, ptr %5, align 8, !tbaa !85
  %39 = getelementptr inbounds nuw %"class.grpc_core::HeaderMatcher", ptr %38, i32 0, i32 4
  %40 = load i64, ptr %39, align 8, !tbaa !95
  %41 = icmp eq i64 %37, %40
  br i1 %41, label %42, label %49

42:                                               ; preds = %35
  %43 = getelementptr inbounds nuw %"class.grpc_core::HeaderMatcher", ptr %6, i32 0, i32 5
  %44 = load i64, ptr %43, align 8, !tbaa !96
  %45 = load ptr, ptr %5, align 8, !tbaa !85
  %46 = getelementptr inbounds nuw %"class.grpc_core::HeaderMatcher", ptr %45, i32 0, i32 5
  %47 = load i64, ptr %46, align 8, !tbaa !96
  %48 = icmp eq i64 %44, %47
  br label %49

49:                                               ; preds = %42, %35
  %50 = phi i1 [ false, %35 ], [ %48, %42 ]
  store i1 %50, ptr %3, align 1
  br label %67

51:                                               ; preds = %32
  %52 = getelementptr inbounds nuw %"class.grpc_core::HeaderMatcher", ptr %6, i32 0, i32 6
  %53 = load i8, ptr %52, align 8, !tbaa !97, !range !15, !noundef !16
  %54 = trunc i8 %53 to i1
  %55 = zext i1 %54 to i32
  %56 = load ptr, ptr %5, align 8, !tbaa !85
  %57 = getelementptr inbounds nuw %"class.grpc_core::HeaderMatcher", ptr %56, i32 0, i32 6
  %58 = load i8, ptr %57, align 8, !tbaa !97, !range !15, !noundef !16
  %59 = trunc i8 %58 to i1
  %60 = zext i1 %59 to i32
  %61 = icmp eq i32 %55, %60
  store i1 %61, ptr %3, align 1
  br label %67

62:                                               ; preds = %32
  %63 = getelementptr inbounds nuw %"class.grpc_core::HeaderMatcher", ptr %6, i32 0, i32 3
  %64 = load ptr, ptr %5, align 8, !tbaa !85
  %65 = getelementptr inbounds nuw %"class.grpc_core::HeaderMatcher", ptr %64, i32 0, i32 3
  %66 = call noundef zeroext i1 @_ZNK9grpc_core13StringMatchereqERKS0_(ptr noundef nonnull align 8 dereferenceable(49) %63, ptr noundef nonnull align 8 dereferenceable(49) %65)
  store i1 %66, ptr %3, align 1
  br label %67

67:                                               ; preds = %62, %51, %49, %31, %19, %11
  %68 = load i1, ptr %3, align 1
  ret i1 %68
}