; Function Attrs: mustprogress nofree nounwind willreturn memory(read, inaccessiblemem: none) uwtable
define noundef zeroext i1 @_ZNK9grpc_core13HeaderMatchereqERKS0_(ptr noundef nonnull readonly align 8 captures(none) dereferenceable(114) %0, ptr noundef nonnull readonly align 8 captures(none) dereferenceable(114) %1) local_unnamed_addr #9 align 2 personality ptr @__gxx_personality_v0 {
  %3 = getelementptr inbounds nuw i8, ptr %0, i64 8
  %4 = load i64, ptr %3, align 8, !tbaa !14
  %5 = getelementptr inbounds nuw i8, ptr %1, i64 8
  %6 = load i64, ptr %5, align 8, !tbaa !14
  %7 = icmp eq i64 %4, %6
  br i1 %7, label %8, label %_ZNK9grpc_core13StringMatchereqERKS0_.exit

8:                                                ; preds = %2
  %9 = icmp eq i64 %4, 0
  br i1 %9, label %_ZStneIcSt11char_traitsIcESaIcEEbRKNSt7__cxx1112basic_stringIT_T0_T1_EESA_.exit.thread12, label %_ZStneIcSt11char_traitsIcESaIcEEbRKNSt7__cxx1112basic_stringIT_T0_T1_EESA_.exit

_ZStneIcSt11char_traitsIcESaIcEEbRKNSt7__cxx1112basic_stringIT_T0_T1_EESA_.exit: ; preds = %8
  %10 = load ptr, ptr %1, align 8, !tbaa !11
  %11 = load ptr, ptr %0, align 8, !tbaa !11
  %bcmp.i.i = tail call i32 @bcmp(ptr %11, ptr %10, i64 %4)
  %.not13 = icmp eq i32 %bcmp.i.i, 0
  br i1 %.not13, label %_ZStneIcSt11char_traitsIcESaIcEEbRKNSt7__cxx1112basic_stringIT_T0_T1_EESA_.exit.thread12, label %_ZNK9grpc_core13StringMatchereqERKS0_.exit

_ZStneIcSt11char_traitsIcESaIcEEbRKNSt7__cxx1112basic_stringIT_T0_T1_EESA_.exit.thread12: ; preds = %8, %_ZStneIcSt11char_traitsIcESaIcEEbRKNSt7__cxx1112basic_stringIT_T0_T1_EESA_.exit
  %12 = getelementptr inbounds nuw i8, ptr %0, i64 32
  %13 = load i32, ptr %12, align 8, !tbaa !82
  %14 = getelementptr inbounds nuw i8, ptr %1, i64 32
  %15 = load i32, ptr %14, align 8, !tbaa !82
  %.not = icmp eq i32 %13, %15
  br i1 %.not, label %16, label %_ZNK9grpc_core13StringMatchereqERKS0_.exit

16:                                               ; preds = %_ZStneIcSt11char_traitsIcESaIcEEbRKNSt7__cxx1112basic_stringIT_T0_T1_EESA_.exit.thread12
  %17 = getelementptr inbounds nuw i8, ptr %0, i64 113
  %18 = load i8, ptr %17, align 1, !tbaa !85, !range !48, !noundef !49
  %19 = getelementptr inbounds nuw i8, ptr %1, i64 113
  %20 = load i8, ptr %19, align 1, !tbaa !85, !range !48, !noundef !49
  %.not10 = icmp eq i8 %18, %20
  br i1 %.not10, label %21, label %_ZNK9grpc_core13StringMatchereqERKS0_.exit

21:                                               ; preds = %16
  switch i32 %13, label %40 [
    i32 5, label %22
    i32 6, label %34
  ]

22:                                               ; preds = %21
  %23 = getelementptr inbounds nuw i8, ptr %0, i64 96
  %24 = load i64, ptr %23, align 8, !tbaa !86
  %25 = getelementptr inbounds nuw i8, ptr %1, i64 96
  %26 = load i64, ptr %25, align 8, !tbaa !86
  %27 = icmp eq i64 %24, %26
  %28 = getelementptr inbounds nuw i8, ptr %0, i64 104
  %29 = load i64, ptr %28, align 8
  %30 = getelementptr inbounds nuw i8, ptr %1, i64 104
  %31 = load i64, ptr %30, align 8
  %32 = icmp eq i64 %29, %31
  %33 = select i1 %27, i1 %32, i1 false
  br label %_ZNK9grpc_core13StringMatchereqERKS0_.exit

34:                                               ; preds = %21
  %35 = getelementptr inbounds nuw i8, ptr %0, i64 112
  %36 = load i8, ptr %35, align 8, !tbaa !88, !range !48, !noundef !49
  %37 = getelementptr inbounds nuw i8, ptr %1, i64 112
  %38 = load i8, ptr %37, align 8, !tbaa !88, !range !48, !noundef !49
  %39 = icmp eq i8 %36, %38
  br label %_ZNK9grpc_core13StringMatchereqERKS0_.exit

40:                                               ; preds = %21
  %41 = getelementptr inbounds nuw i8, ptr %0, i64 40
  %42 = getelementptr inbounds nuw i8, ptr %1, i64 40
  %43 = load i32, ptr %41, align 8, !tbaa !37
  %44 = load i32, ptr %42, align 8, !tbaa !37
  %.not.i = icmp eq i32 %43, %44
  br i1 %.not.i, label %45, label %_ZNK9grpc_core13StringMatchereqERKS0_.exit

45:                                               ; preds = %40
  %46 = getelementptr inbounds nuw i8, ptr %0, i64 88
  %47 = load i8, ptr %46, align 8, !tbaa !47, !range !48, !noundef !49
  %48 = getelementptr inbounds nuw i8, ptr %1, i64 88
  %49 = load i8, ptr %48, align 8, !tbaa !47, !range !48, !noundef !49
  %.not7.i = icmp eq i8 %47, %49
  br i1 %.not7.i, label %50, label %_ZNK9grpc_core13StringMatchereqERKS0_.exit

50:                                               ; preds = %45
  %51 = icmp eq i32 %43, 3
  br i1 %51, label %52, label %68

52:                                               ; preds = %50
  %53 = getelementptr inbounds nuw i8, ptr %0, i64 80
  %54 = load ptr, ptr %53, align 8, !tbaa !18
  %55 = getelementptr inbounds nuw i8, ptr %1, i64 80
  %56 = load ptr, ptr %55, align 8, !tbaa !18
  %57 = getelementptr inbounds nuw i8, ptr %54, i64 8
  %58 = load i64, ptr %57, align 8, !tbaa !14
  %59 = getelementptr inbounds nuw i8, ptr %56, i64 8
  %60 = load i64, ptr %59, align 8, !tbaa !14
  %61 = icmp eq i64 %58, %60
  br i1 %61, label %62, label %_ZNK9grpc_core13StringMatchereqERKS0_.exit

62:                                               ; preds = %52
  %63 = icmp eq i64 %58, 0
  br i1 %63, label %_ZNK9grpc_core13StringMatchereqERKS0_.exit, label %64

64:                                               ; preds = %62
  %65 = load ptr, ptr %56, align 8, !tbaa !11
  %66 = load ptr, ptr %54, align 8, !tbaa !11
  %bcmp.i.i11 = tail call i32 @bcmp(ptr %66, ptr %65, i64 %58)
  %67 = icmp eq i32 %bcmp.i.i11, 0
  br label %_ZNK9grpc_core13StringMatchereqERKS0_.exit

68:                                               ; preds = %50
  %69 = getelementptr inbounds nuw i8, ptr %0, i64 48
  %70 = getelementptr inbounds nuw i8, ptr %1, i64 48
  %71 = getelementptr inbounds nuw i8, ptr %0, i64 56
  %72 = load i64, ptr %71, align 8, !tbaa !14
  %73 = getelementptr inbounds nuw i8, ptr %1, i64 56
  %74 = load i64, ptr %73, align 8, !tbaa !14
  %75 = icmp eq i64 %72, %74
  br i1 %75, label %76, label %_ZNK9grpc_core13StringMatchereqERKS0_.exit

76:                                               ; preds = %68
  %77 = icmp eq i64 %72, 0
  br i1 %77, label %_ZNK9grpc_core13StringMatchereqERKS0_.exit, label %78

78:                                               ; preds = %76
  %79 = load ptr, ptr %70, align 8, !tbaa !11
  %80 = load ptr, ptr %69, align 8, !tbaa !11
  %bcmp.i8.i = tail call i32 @bcmp(ptr %80, ptr %79, i64 %72)
  %81 = icmp eq i32 %bcmp.i8.i, 0
  br label %_ZNK9grpc_core13StringMatchereqERKS0_.exit

_ZNK9grpc_core13StringMatchereqERKS0_.exit:       ; preds = %2, %78, %76, %68, %64, %62, %52, %45, %40, %16, %_ZStneIcSt11char_traitsIcESaIcEEbRKNSt7__cxx1112basic_stringIT_T0_T1_EESA_.exit.thread12, %_ZStneIcSt11char_traitsIcESaIcEEbRKNSt7__cxx1112basic_stringIT_T0_T1_EESA_.exit, %34, %22
  %.0 = phi i1 [ %39, %34 ], [ %33, %22 ], [ false, %_ZStneIcSt11char_traitsIcESaIcEEbRKNSt7__cxx1112basic_stringIT_T0_T1_EESA_.exit ], [ false, %_ZStneIcSt11char_traitsIcESaIcEEbRKNSt7__cxx1112basic_stringIT_T0_T1_EESA_.exit.thread12 ], [ false, %16 ], [ false, %45 ], [ false, %40 ], [ false, %52 ], [ %67, %64 ], [ true, %62 ], [ false, %68 ], [ %81, %78 ], [ true, %76 ], [ false, %2 ]
  ret i1 %.0
}